target datalayout = "e-m:e-p270:32:32-p271:32:32-p272:64:64-i64:64-i128:128-f80:128-n8:16:32:64-S128"
target triple = "x86_64-pc-linux-gnu"

%struct.UriTextRangeStructA = type { ptr, ptr }
%struct.UriUriStructA = type { %struct.UriTextRangeStructA, %struct.UriTextRangeStructA, %struct.UriTextRangeStructA, %struct.UriHostDataStructA, %struct.UriTextRangeStructA, ptr, ptr, %struct.UriTextRangeStructA, %struct.UriTextRangeStructA, i32, i32, ptr }
%struct.UriHostDataStructA = type { ptr, ptr, %struct.UriTextRangeStructA }
%struct.UriPathSegmentStructA = type { %struct.UriTextRangeStructA, ptr, ptr }
%struct.UriMemoryManagerStruct = type { ptr, ptr, ptr, ptr, ptr, ptr }

; Function Attrs: nounwind uwtable
define i32 @uriCopyPathA(ptr noundef %0, ptr noundef %1, ptr noundef %2) #0 {
  %4 = alloca i32, align 4
  %5 = alloca ptr, align 8
  %6 = alloca ptr, align 8
  %7 = alloca ptr, align 8
  %8 = alloca ptr, align 8
  %9 = alloca ptr, align 8
  %10 = alloca ptr, align 8
  %11 = alloca i32, align 4
  store ptr %0, ptr %5, align 8, !tbaa !3
  store ptr %1, ptr %6, align 8, !tbaa !3
  store ptr %2, ptr %7, align 8, !tbaa !16
  %12 = load ptr, ptr %6, align 8, !tbaa !3
  %13 = getelementptr inbounds nuw %struct.UriUriStructA, ptr %12, i32 0, i32 5
  %14 = load ptr, ptr %13, align 8, !tbaa !24
  %15 = icmp eq ptr %14, null
  br i1 %15, label %16, label %21

16:                                               ; preds = %3
  %17 = load ptr, ptr %5, align 8, !tbaa !3
  %18 = getelementptr inbounds nuw %struct.UriUriStructA, ptr %17, i32 0, i32 5
  store ptr null, ptr %18, align 8, !tbaa !24
  %19 = load ptr, ptr %5, align 8, !tbaa !3
  %20 = getelementptr inbounds nuw %struct.UriUriStructA, ptr %19, i32 0, i32 6
  store ptr null, ptr %20, align 8, !tbaa !37
  br label %77

21:                                               ; preds = %3
  call void @llvm.lifetime.start.p0(i64 8, ptr %8) #5
  %22 = load ptr, ptr %6, align 8, !tbaa !3
  %23 = getelementptr inbounds nuw %struct.UriUriStructA, ptr %22, i32 0, i32 5
  %24 = load ptr, ptr %23, align 8, !tbaa !24
  store ptr %24, ptr %8, align 8, !tbaa !25
  call void @llvm.lifetime.start.p0(i64 8, ptr %9) #5
  store ptr null, ptr %9, align 8, !tbaa !25
  br label %25

25:                                               ; preds = %63, %21
  call void @llvm.lifetime.start.p0(i64 8, ptr %10) #5
  %26 = load ptr, ptr %7, align 8, !tbaa !16
  %27 = getelementptr inbounds nuw %struct.UriMemoryManagerStruct, ptr %26, i32 0, i32 0
  %28 = load ptr, ptr %27, align 8, !tbaa !44
  %29 = load ptr, ptr %7, align 8, !tbaa !16
  %30 = call ptr %28(ptr noundef %29, i64 noundef 32)
  store ptr %30, ptr %10, align 8, !tbaa !25
  %31 = load ptr, ptr %10, align 8, !tbaa !25
  %32 = icmp eq ptr %31, null
  br i1 %32, label %33, label %40

33:                                               ; preds = %25
  %34 = load ptr, ptr %9, align 8, !tbaa !25
  %35 = icmp ne ptr %34, null
  br i1 %35, label %36, label %39

36:                                               ; preds = %33
  %37 = load ptr, ptr %9, align 8, !tbaa !25
  %38 = getelementptr inbounds nuw %struct.UriPathSegmentStructA, ptr %37, i32 0, i32 1
  store ptr null, ptr %38, align 8, !tbaa !31
  br label %39

39:                                               ; preds = %36, %33
  store i32 0, ptr %4, align 4
  store i32 1, ptr %11, align 4
  br label %60

40:                                               ; preds = %25
  %41 = load ptr, ptr %10, align 8, !tbaa !25
  %42 = getelementptr inbounds nuw %struct.UriPathSegmentStructA, ptr %41, i32 0, i32 0
  %43 = load ptr, ptr %8, align 8, !tbaa !25
  %44 = getelementptr inbounds nuw %struct.UriPathSegmentStructA, ptr %43, i32 0, i32 0
  call void @llvm.memcpy.p0.p0.i64(ptr align 8 %42, ptr align 8 %44, i64 16, i1 false), !tbaa.struct !45
  %45 = load ptr, ptr %9, align 8, !tbaa !25
  %46 = icmp eq ptr %45, null
  br i1 %46, label %47, label %51

47:                                               ; preds = %40
  %48 = load ptr, ptr %10, align 8, !tbaa !25
  %49 = load ptr, ptr %5, align 8, !tbaa !3
  %50 = getelementptr inbounds nuw %struct.UriUriStructA, ptr %49, i32 0, i32 5
  store ptr %48, ptr %50, align 8, !tbaa !24
  br label %55

51:                                               ; preds = %40
  %52 = load ptr, ptr %10, align 8, !tbaa !25
  %53 = load ptr, ptr %9, align 8, !tbaa !25
  %54 = getelementptr inbounds nuw %struct.UriPathSegmentStructA, ptr %53, i32 0, i32 1
  store ptr %52, ptr %54, align 8, !tbaa !31
  br label %55

55:                                               ; preds = %51, %47
  %56 = load ptr, ptr %10, align 8, !tbaa !25
  store ptr %56, ptr %9, align 8, !tbaa !25
  %57 = load ptr, ptr %8, align 8, !tbaa !25
  %58 = getelementptr inbounds nuw %struct.UriPathSegmentStructA, ptr %57, i32 0, i32 1
  %59 = load ptr, ptr %58, align 8, !tbaa !31
  store ptr %59, ptr %8, align 8, !tbaa !25
  store i32 0, ptr %11, align 4
  br label %60

60:                                               ; preds = %55, %39
  call void @llvm.lifetime.end.p0(i64 8, ptr %10) #5
  %61 = load i32, ptr %11, align 4
  switch i32 %61, label %74 [
    i32 0, label %62
  ]

62:                                               ; preds = %60
  br label %63

63:                                               ; preds = %62
  %64 = load ptr, ptr %8, align 8, !tbaa !25
  %65 = icmp ne ptr %64, null
  br i1 %65, label %25, label %66, !llvm.loop !46

66:                                               ; preds = %63
  %67 = load ptr, ptr %9, align 8, !tbaa !25
  %68 = load ptr, ptr %5, align 8, !tbaa !3
  %69 = getelementptr inbounds nuw %struct.UriUriStructA, ptr %68, i32 0, i32 6
  store ptr %67, ptr %69, align 8, !tbaa !37
  %70 = load ptr, ptr %5, align 8, !tbaa !3
  %71 = getelementptr inbounds nuw %struct.UriUriStructA, ptr %70, i32 0, i32 6
  %72 = load ptr, ptr %71, align 8, !tbaa !37
  %73 = getelementptr inbounds nuw %struct.UriPathSegmentStructA, ptr %72, i32 0, i32 1
  store ptr null, ptr %73, align 8, !tbaa !31
  store i32 0, ptr %11, align 4
  br label %74

74:                                               ; preds = %66, %60
  call void @llvm.lifetime.end.p0(i64 8, ptr %9) #5
  call void @llvm.lifetime.end.p0(i64 8, ptr %8) #5
  %75 = load i32, ptr %11, align 4
  switch i32 %75, label %85 [
    i32 0, label %76
    i32 1, label %83
  ]

76:                                               ; preds = %74
  br label %77

77:                                               ; preds = %76, %16
  %78 = load ptr, ptr %6, align 8, !tbaa !3
  %79 = getelementptr inbounds nuw %struct.UriUriStructA, ptr %78, i32 0, i32 9
  %80 = load i32, ptr %79, align 8, !tbaa !47
  %81 = load ptr, ptr %5, align 8, !tbaa !3
  %82 = getelementptr inbounds nuw %struct.UriUriStructA, ptr %81, i32 0, i32 9
  store i32 %80, ptr %82, align 8, !tbaa !47
  store i32 1, ptr %4, align 4
  br label %83

83:                                               ; preds = %77, %74
  %84 = load i32, ptr %4, align 4
  ret i32 %84

85:                                               ; preds = %74
  unreachable
}