; Function Attrs: nounwind uwtable
define range(i32 0, 2) i32 @uriCopyPathA(ptr noundef writeonly captures(none) %0, ptr noundef readonly captures(none) %1, ptr noundef %2) local_unnamed_addr #4 {
  %4 = getelementptr inbounds nuw i8, ptr %1, i64 96
  %5 = load ptr, ptr %4, align 8, !tbaa !17
  %6 = icmp eq ptr %5, null
  %7 = getelementptr inbounds nuw i8, ptr %0, i64 96
  br i1 %6, label %8, label %.preheader

8:                                                ; preds = %3
  tail call void @llvm.memset.p0.i64(ptr noundef nonnull align 8 dereferenceable(16) %7, i8 0, i64 16, i1 false)
  br label %24

.preheader:                                       ; preds = %3, %19
  %.030 = phi ptr [ %21, %19 ], [ %5, %3 ]
  %.028 = phi ptr [ %10, %19 ], [ null, %3 ]
  %9 = load ptr, ptr %2, align 8, !tbaa !35
  %10 = tail call ptr %9(ptr noundef nonnull %2, i64 noundef 32) #11
  %.not34 = icmp eq ptr %10, null
  br i1 %.not34, label %11, label %14

11:                                               ; preds = %.preheader
  %.not = icmp eq ptr %.028, null
  br i1 %.not, label %28, label %12

12:                                               ; preds = %11
  %13 = getelementptr inbounds nuw i8, ptr %.028, i64 16
  store ptr null, ptr %13, align 8, !tbaa !23
  br label %28

14:                                               ; preds = %.preheader
  tail call void @llvm.memcpy.p0.p0.i64(ptr noundef nonnull align 8 dereferenceable(16) %10, ptr noundef nonnull align 8 dereferenceable(16) %.030, i64 16, i1 false), !tbaa.struct !36
  %15 = icmp eq ptr %.028, null
  br i1 %15, label %16, label %17

16:                                               ; preds = %14
  store ptr %10, ptr %7, align 8, !tbaa !17
  br label %19

17:                                               ; preds = %14
  %18 = getelementptr inbounds nuw i8, ptr %.028, i64 16
  store ptr %10, ptr %18, align 8, !tbaa !23
  br label %19

19:                                               ; preds = %17, %16
  %20 = getelementptr inbounds nuw i8, ptr %.030, i64 16
  %21 = load ptr, ptr %20, align 8, !tbaa !23
  %.not35 = icmp eq ptr %21, null
  br i1 %.not35, label %.thread38, label %.preheader, !llvm.loop !38

.thread38:                                        ; preds = %19
  %22 = getelementptr inbounds nuw i8, ptr %0, i64 104
  store ptr %10, ptr %22, align 8, !tbaa !33
  %23 = getelementptr inbounds nuw i8, ptr %10, i64 16
  store ptr null, ptr %23, align 8, !tbaa !23
  br label %24

24:                                               ; preds = %.thread38, %8
  %25 = getelementptr inbounds nuw i8, ptr %1, i64 144
  %26 = load i32, ptr %25, align 8, !tbaa !39
  %27 = getelementptr inbounds nuw i8, ptr %0, i64 144
  store i32 %26, ptr %27, align 8, !tbaa !39
  br label %28

28:                                               ; preds = %12, %11, %24
  %.2 = phi i32 [ 1, %24 ], [ 0, %11 ], [ 0, %12 ]
  ret i32 %.2
}